; ModuleID = '24/521.c'
source_filename = "24/521.c"
target datalayout = "e-m:e-p270:32:32-p271:32:32-p272:64:64-i64:64-f80:128-n8:16:32:64-S128"
target triple = "x86_64-pc-linux-gnu"

@.str = private unnamed_addr constant [5 x i8] c"%s%c\00", align 1
@.str.1 = private unnamed_addr constant [7 x i8] c"%s\0A%s\0A\00", align 1

; Function Attrs: noinline nounwind uwtable
define dso_local void @main() #0 {
  %1 = alloca i32, align 4
  %2 = alloca i32, align 4
  %3 = alloca [50 x i32], align 16
  %4 = alloca i32, align 4
  %5 = alloca i32, align 4
  %6 = alloca i32, align 4
  %7 = alloca i32, align 4
  %8 = alloca [50 x [30 x i8]], align 16
  %9 = alloca i8, align 1
  store i8 0, i8* %9, align 1
  store i32 0, i32* %2, align 4
  br label %10

10:                                               ; preds = %19, %0
  %11 = load i8, i8* %9, align 1
  %12 = sext i8 %11 to i32
  %13 = icmp ne i32 %12, 10
  br i1 %13, label %14, label %22

14:                                               ; preds = %10
  %15 = load i32, i32* %2, align 4
  %16 = sext i32 %15 to i64
  %17 = getelementptr inbounds [50 x [30 x i8]], [50 x [30 x i8]]* %8, i64 0, i64 %16
  %18 = call i32 (i8*, ...) @__isoc99_scanf(i8* getelementptr inbounds ([5 x i8], [5 x i8]* @.str, i64 0, i64 0), [30 x i8]* %17, i8* %9)
  br label %19

19:                                               ; preds = %14
  %20 = load i32, i32* %2, align 4
  %21 = add nsw i32 %20, 1
  store i32 %21, i32* %2, align 4
  br label %10

22:                                               ; preds = %10
  store i32 0, i32* %1, align 4
  br label %23

23:                                               ; preds = %37, %22
  %24 = load i32, i32* %1, align 4
  %25 = load i32, i32* %2, align 4
  %26 = icmp slt i32 %24, %25
  br i1 %26, label %27, label %40

27:                                               ; preds = %23
  %28 = load i32, i32* %1, align 4
  %29 = sext i32 %28 to i64
  %30 = getelementptr inbounds [50 x [30 x i8]], [50 x [30 x i8]]* %8, i64 0, i64 %29
  %31 = getelementptr inbounds [30 x i8], [30 x i8]* %30, i64 0, i64 0
  %32 = call i64 @strlen(i8* %31) #3
  %33 = trunc i64 %32 to i32
  %34 = load i32, i32* %1, align 4
  %35 = sext i32 %34 to i64
  %36 = getelementptr inbounds [50 x i32], [50 x i32]* %3, i64 0, i64 %35
  store i32 %33, i32* %36, align 4
  br label %37

37:                                               ; preds = %27
  %38 = load i32, i32* %1, align 4
  %39 = add nsw i32 %38, 1
  store i32 %39, i32* %1, align 4
  br label %23

40:                                               ; preds = %23
  %41 = getelementptr inbounds [50 x i32], [50 x i32]* %3, i64 0, i64 0
  %42 = load i32, i32* %41, align 16
  store i32 %42, i32* %5, align 4
  store i32 %42, i32* %4, align 4
  store i32 0, i32* %7, align 4
  store i32 0, i32* %6, align 4
  store i32 1, i32* %1, align 4
  br label %43

43:                                               ; preds = %74, %40
  %44 = load i32, i32* %1, align 4
  %45 = load i32, i32* %2, align 4
  %46 = icmp slt i32 %44, %45
  br i1 %46, label %47, label %77

47:                                               ; preds = %43
  %48 = load i32, i32* %1, align 4
  %49 = sext i32 %48 to i64
  %50 = getelementptr inbounds [50 x i32], [50 x i32]* %3, i64 0, i64 %49
  %51 = load i32, i32* %50, align 4
  %52 = load i32, i32* %4, align 4
  %53 = icmp sgt i32 %51, %52
  br i1 %53, label %54, label %60

54:                                               ; preds = %47
  %55 = load i32, i32* %1, align 4
  %56 = sext i32 %55 to i64
  %57 = getelementptr inbounds [50 x i32], [50 x i32]* %3, i64 0, i64 %56
  %58 = load i32, i32* %57, align 4
  store i32 %58, i32* %4, align 4
  %59 = load i32, i32* %1, align 4
  store i32 %59, i32* %6, align 4
  br label %60

60:                                               ; preds = %54, %47
  %61 = load i32, i32* %1, align 4
  %62 = sext i32 %61 to i64
  %63 = getelementptr inbounds [50 x i32], [50 x i32]* %3, i64 0, i64 %62
  %64 = load i32, i32* %63, align 4
  %65 = load i32, i32* %5, align 4
  %66 = icmp slt i32 %64, %65
  br i1 %66, label %67, label %73

67:                                               ; preds = %60
  %68 = load i32, i32* %1, align 4
  %69 = sext i32 %68 to i64
  %70 = getelementptr inbounds [50 x i32], [50 x i32]* %3, i64 0, i64 %69
  %71 = load i32, i32* %70, align 4
  store i32 %71, i32* %5, align 4
  %72 = load i32, i32* %1, align 4
  store i32 %72, i32* %7, align 4
  br label %73

73:                                               ; preds = %67, %60
  br label %74

74:                                               ; preds = %73
  %75 = load i32, i32* %1, align 4
  %76 = add nsw i32 %75, 1
  store i32 %76, i32* %1, align 4
  br label %43

77:                                               ; preds = %43
  %78 = load i32, i32* %6, align 4
  %79 = sext i32 %78 to i64
  %80 = getelementptr inbounds [50 x [30 x i8]], [50 x [30 x i8]]* %8, i64 0, i64 %79
  %81 = getelementptr inbounds [30 x i8], [30 x i8]* %80, i64 0, i64 0
  %82 = load i32, i32* %7, align 4
  %83 = sext i32 %82 to i64
  %84 = getelementptr inbounds [50 x [30 x i8]], [50 x [30 x i8]]* %8, i64 0, i64 %83
  %85 = getelementptr inbounds [30 x i8], [30 x i8]* %84, i64 0, i64 0
  %86 = call i32 (i8*, ...) @printf(i8* getelementptr inbounds ([7 x i8], [7 x i8]* @.str.1, i64 0, i64 0), i8* %81, i8* %85)
  ret void
}

declare dso_local i32 @__isoc99_scanf(i8*, ...) #1

; Function Attrs: nounwind readonly
declare dso_local i64 @strlen(i8*) #2

declare dso_local i32 @printf(i8*, ...) #1


!llvm.module.flags = !{!0}
!llvm.ident = !{!1}

!0 = !{i32 1, !"wchar_size", i32 4}
!1 = !{!"clang version 10.0.0-4ubuntu1 "}
